target datalayout = "e-m:e-p270:32:32-p271:32:32-p272:64:64-i64:64-i128:128-f80:128-n8:16:32:64-S128"
target triple = "x86_64-pc-linux-gnu"

@_ZN15MarchingSquares10vertexListE = global [4 x [2 x double]] zeroinitializer, align 16

; Function Attrs: mustprogress nounwind uwtable
define noundef i32 @_ZN6Square11CornerIndexEii(i32 noundef %0, i32 noundef %1) #1 align 2 {
  %3 = alloca i32, align 4
  %4 = alloca i32, align 4
  store i32 %0, ptr %3, align 4
  store i32 %1, ptr %4, align 4
  %5 = load i32, ptr %4, align 4
  %6 = shl i32 %5, 1
  %7 = load i32, ptr %3, align 4
  %8 = or i32 %6, %7
  ret i32 %8
}

; Function Attrs: mustprogress nounwind uwtable
define noundef double @_ZN15MarchingSquares11InterpolateEdd(double noundef %0, double noundef %1) #1 align 2 {
  %3 = alloca double, align 8
  %4 = alloca double, align 8
  store double %0, ptr %3, align 8
  store double %1, ptr %4, align 8
  %5 = load double, ptr %3, align 8
  %6 = load double, ptr %3, align 8
  %7 = load double, ptr %4, align 8
  %8 = fsub double %6, %7
  %9 = fdiv double %5, %8
  ret double %9
}

; Function Attrs: mustprogress nounwind uwtable
define void @_ZN6Square11EdgeCornersEiRiS0_(i32 noundef %0, ptr noundef nonnull align 4 dereferenceable(4) %1, ptr noundef nonnull align 4 dereferenceable(4) %2) #1 align 2 {
  %4 = alloca i32, align 4
  %5 = alloca ptr, align 8
  %6 = alloca ptr, align 8
  %7 = alloca i32, align 4
  %8 = alloca i32, align 4
  store i32 %0, ptr %4, align 4
  store ptr %1, ptr %5, align 8
  store ptr %2, ptr %6, align 8
  %9 = load i32, ptr %4, align 4
  call void @_ZN6Square15FactorEdgeIndexEiRiS0_(i32 noundef %9, ptr noundef nonnull align 4 dereferenceable(4) %7, ptr noundef nonnull align 4 dereferenceable(4) %8)
  %10 = load i32, ptr %7, align 4
  switch i32 %10, label %25 [
    i32 0, label %11
    i32 1, label %18
  ]

11:                                               ; preds = %3
  %12 = load i32, ptr %8, align 4
  %13 = call noundef i32 @_ZN6Square11CornerIndexEii(i32 noundef 0, i32 noundef %12)
  %14 = load ptr, ptr %5, align 8
  store i32 %13, ptr %14, align 4
  %15 = load i32, ptr %8, align 4
  %16 = call noundef i32 @_ZN6Square11CornerIndexEii(i32 noundef 1, i32 noundef %15)
  %17 = load ptr, ptr %6, align 8
  store i32 %16, ptr %17, align 4
  br label %25

18:                                               ; preds = %3
  %19 = load i32, ptr %8, align 4
  %20 = call noundef i32 @_ZN6Square11CornerIndexEii(i32 noundef %19, i32 noundef 0)
  %21 = load ptr, ptr %5, align 8
  store i32 %20, ptr %21, align 4
  %22 = load i32, ptr %8, align 4
  %23 = call noundef i32 @_ZN6Square11CornerIndexEii(i32 noundef %22, i32 noundef 1)
  %24 = load ptr, ptr %6, align 8
  store i32 %23, ptr %24, align 4
  br label %25

25:                                               ; preds = %18, %11, %3
  ret void
}

; Function Attrs: mustprogress nounwind uwtable
define void @_ZN6Square15FactorEdgeIndexEiRiS0_(i32 noundef %0, ptr noundef nonnull align 4 dereferenceable(4) %1, ptr noundef nonnull align 4 dereferenceable(4) %2) #1 align 2 {
  %4 = alloca i32, align 4
  %5 = alloca ptr, align 8
  %6 = alloca ptr, align 8
  store i32 %0, ptr %4, align 4
  store ptr %1, ptr %5, align 8
  store ptr %2, ptr %6, align 8
  %7 = load i32, ptr %4, align 4
  switch i32 %7, label %20 [
    i32 0, label %8
    i32 2, label %8
    i32 1, label %13
    i32 3, label %13
  ]

8:                                                ; preds = %3, %3
  %9 = load ptr, ptr %5, align 8
  store i32 0, ptr %9, align 4
  %10 = load i32, ptr %4, align 4
  %11 = sdiv i32 %10, 2
  %12 = load ptr, ptr %6, align 8
  store i32 %11, ptr %12, align 4
  br label %20

13:                                               ; preds = %3, %3
  %14 = load ptr, ptr %5, align 8
  store i32 1, ptr %14, align 4
  %15 = load i32, ptr %4, align 4
  %16 = sdiv i32 %15, 2
  %17 = add nsw i32 %16, 1
  %18 = srem i32 %17, 2
  %19 = load ptr, ptr %6, align 8
  store i32 %18, ptr %19, align 4
  br label %20

20:                                               ; preds = %13, %8, %3
  ret void
}

; Function Attrs: mustprogress uwtable
define void @_ZN15MarchingSquares9SetVertexEiPKdd(i32 noundef %0, ptr noundef %1, double noundef %2) #0 align 2 {
  %4 = alloca i32, align 4
  %5 = alloca ptr, align 8
  %6 = alloca double, align 8
  %7 = alloca i32, align 4
  %8 = alloca i32, align 4
  %9 = alloca i32, align 4
  %10 = alloca i32, align 4
  store i32 %0, ptr %4, align 4
  store ptr %1, ptr %5, align 8
  store double %2, ptr %6, align 8
  %11 = load i32, ptr %4, align 4
  call void @_ZN6Square15FactorEdgeIndexEiRiS0_(i32 noundef %11, ptr noundef nonnull align 4 dereferenceable(4) %7, ptr noundef nonnull align 4 dereferenceable(4) %8)
  %12 = load i32, ptr %4, align 4
  call void @_ZN6Square11EdgeCornersEiRiS0_(i32 noundef %12, ptr noundef nonnull align 4 dereferenceable(4) %9, ptr noundef nonnull align 4 dereferenceable(4) %10)
  %13 = load i32, ptr %7, align 4
  switch i32 %13, label %66 [
    i32 0, label %14
    i32 1, label %40
  ]

14:                                               ; preds = %3
  %15 = load ptr, ptr %5, align 8
  %16 = load i32, ptr %9, align 4
  %17 = sext i32 %16 to i64
  %18 = getelementptr inbounds double, ptr %15, i64 %17
  %19 = load double, ptr %18, align 8
  %20 = load double, ptr %6, align 8
  %21 = fsub double %19, %20
  %22 = load ptr, ptr %5, align 8
  %23 = load i32, ptr %10, align 4
  %24 = sext i32 %23 to i64
  %25 = getelementptr inbounds double, ptr %22, i64 %24
  %26 = load double, ptr %25, align 8
  %27 = load double, ptr %6, align 8
  %28 = fsub double %26, %27
  %29 = call noundef double @_ZN15MarchingSquares11InterpolateEdd(double noundef %21, double noundef %28)
  %30 = load i32, ptr %4, align 4
  %31 = sext i32 %30 to i64
  %32 = getelementptr inbounds [4 x [2 x double]], ptr @_ZN15MarchingSquares10vertexListE, i64 0, i64 %31
  %33 = getelementptr inbounds [2 x double], ptr %32, i64 0, i64 0
  store double %29, ptr %33, align 16
  %34 = load i32, ptr %8, align 4
  %35 = sitofp i32 %34 to double
  %36 = load i32, ptr %4, align 4
  %37 = sext i32 %36 to i64
  %38 = getelementptr inbounds [4 x [2 x double]], ptr @_ZN15MarchingSquares10vertexListE, i64 0, i64 %37
  %39 = getelementptr inbounds [2 x double], ptr %38, i64 0, i64 1
  store double %35, ptr %39, align 8
  br label %66

40:                                               ; preds = %3
  %41 = load ptr, ptr %5, align 8
  %42 = load i32, ptr %9, align 4
  %43 = sext i32 %42 to i64
  %44 = getelementptr inbounds double, ptr %41, i64 %43
  %45 = load double, ptr %44, align 8
  %46 = load double, ptr %6, align 8
  %47 = fsub double %45, %46
  %48 = load ptr, ptr %5, align 8
  %49 = load i32, ptr %10, align 4
  %50 = sext i32 %49 to i64
  %51 = getelementptr inbounds double, ptr %48, i64 %50
  %52 = load double, ptr %51, align 8
  %53 = load double, ptr %6, align 8
  %54 = fsub double %52, %53
  %55 = call noundef double @_ZN15MarchingSquares11InterpolateEdd(double noundef %47, double noundef %54)
  %56 = load i32, ptr %4, align 4
  %57 = sext i32 %56 to i64
  %58 = getelementptr inbounds [4 x [2 x double]], ptr @_ZN15MarchingSquares10vertexListE, i64 0, i64 %57
  %59 = getelementptr inbounds [2 x double], ptr %58, i64 0, i64 1
  store double %55, ptr %59, align 8
  %60 = load i32, ptr %8, align 4
  %61 = sitofp i32 %60 to double
  %62 = load i32, ptr %4, align 4
  %63 = sext i32 %62 to i64
  %64 = getelementptr inbounds [4 x [2 x double]], ptr @_ZN15MarchingSquares10vertexListE, i64 0, i64 %63
  %65 = getelementptr inbounds [2 x double], ptr %64, i64 0, i64 0
  store double %61, ptr %65, align 16
  br label %66

66:                                               ; preds = %40, %14, %3
  ret void
}