; Function Attrs: mustprogress nofree norecurse nosync nounwind willreturn memory(write, argmem: read, inaccessiblemem: none) uwtable
define void @_ZN15MarchingSquares9SetVertexEiPKdd(i32 noundef %0, ptr noundef readonly captures(none) %1, double noundef %2) local_unnamed_addr #4 align 2 {
  switch i32 %0, label %_ZN6Square15FactorEdgeIndexEiRiS0_.exit [
    i32 0, label %4
    i32 2, label %4
    i32 1, label %5
    i32 3, label %5
  ]

4:                                                ; preds = %3, %3
  %.cmp.i = icmp samesign ugt i32 %0, 1
  br label %.sink.split.i

5:                                                ; preds = %3, %3
  %.cmp6.i = icmp samesign ult i32 %0, 2
  br label %.sink.split.i

.sink.split.i:                                    ; preds = %5, %4
  %.0 = phi i32 [ 1, %5 ], [ 0, %4 ]
  %.cmp6.sink.i = phi i1 [ %.cmp6.i, %5 ], [ %.cmp.i, %4 ]
  %6 = uitofp i1 %.cmp6.sink.i to double
  br label %_ZN6Square15FactorEdgeIndexEiRiS0_.exit

_ZN6Square15FactorEdgeIndexEiRiS0_.exit:          ; preds = %3, %.sink.split.i
  %.020 = phi double [ 0.000000e+00, %3 ], [ %6, %.sink.split.i ]
  %.1 = phi i32 [ undef, %3 ], [ %.0, %.sink.split.i ]
  switch i32 %0, label %_ZN6Square15FactorEdgeIndexEiRiS0_.exit.thread.i [
    i32 0, label %_ZN6Square15FactorEdgeIndexEiRiS0_.exit.thread12.i
    i32 2, label %_ZN6Square15FactorEdgeIndexEiRiS0_.exit.thread12.i
    i32 1, label %9
    i32 3, label %9
  ]

_ZN6Square15FactorEdgeIndexEiRiS0_.exit.thread12.i: ; preds = %_ZN6Square15FactorEdgeIndexEiRiS0_.exit, %_ZN6Square15FactorEdgeIndexEiRiS0_.exit
  %.cmp.i.inv.i = icmp samesign ult i32 %0, 2
  %7 = select i1 %.cmp.i.inv.i, i32 0, i32 2
  br label %_ZN6Square15FactorEdgeIndexEiRiS0_.exit.thread.i

_ZN6Square15FactorEdgeIndexEiRiS0_.exit.thread.i: ; preds = %_ZN6Square15FactorEdgeIndexEiRiS0_.exit.thread12.i, %_ZN6Square15FactorEdgeIndexEiRiS0_.exit
  %.011.i = phi i32 [ %7, %_ZN6Square15FactorEdgeIndexEiRiS0_.exit.thread12.i ], [ 0, %_ZN6Square15FactorEdgeIndexEiRiS0_.exit ]
  %8 = or disjoint i32 %.011.i, 1
  br label %_ZN6Square11EdgeCornersEiRiS0_.exit

9:                                                ; preds = %_ZN6Square15FactorEdgeIndexEiRiS0_.exit, %_ZN6Square15FactorEdgeIndexEiRiS0_.exit
  %.cmp6.i.i = icmp samesign ult i32 %0, 2
  %10 = zext i1 %.cmp6.i.i to i32
  %11 = or disjoint i32 %10, 2
  br label %_ZN6Square11EdgeCornersEiRiS0_.exit

_ZN6Square11EdgeCornersEiRiS0_.exit:              ; preds = %_ZN6Square15FactorEdgeIndexEiRiS0_.exit.thread.i, %9
  %.019 = phi i32 [ %.011.i, %_ZN6Square15FactorEdgeIndexEiRiS0_.exit.thread.i ], [ %10, %9 ]
  %storemerge.i = phi i32 [ %8, %_ZN6Square15FactorEdgeIndexEiRiS0_.exit.thread.i ], [ %11, %9 ]
  switch i32 %.1, label %40 [
    i32 0, label %12
    i32 1, label %26
  ]

12:                                               ; preds = %_ZN6Square11EdgeCornersEiRiS0_.exit
  %13 = zext nneg i32 %.019 to i64
  %14 = getelementptr inbounds nuw double, ptr %1, i64 %13
  %15 = load double, ptr %14, align 8
  %16 = fsub double %15, %2
  %17 = zext nneg i32 %storemerge.i to i64
  %18 = getelementptr inbounds nuw double, ptr %1, i64 %17
  %19 = load double, ptr %18, align 8
  %20 = fsub double %19, %2
  %21 = fsub double %16, %20
  %22 = fdiv double %16, %21
  %23 = sext i32 %0 to i64
  %24 = getelementptr inbounds [4 x [2 x double]], ptr @_ZN15MarchingSquares10vertexListE, i64 0, i64 %23
  store double %22, ptr %24, align 16
  %25 = getelementptr inbounds nuw i8, ptr %24, i64 8
  store double %.020, ptr %25, align 8
  br label %40

26:                                               ; preds = %_ZN6Square11EdgeCornersEiRiS0_.exit
  %27 = zext nneg i32 %.019 to i64
  %28 = getelementptr inbounds nuw double, ptr %1, i64 %27
  %29 = load double, ptr %28, align 8
  %30 = fsub double %29, %2
  %31 = zext nneg i32 %storemerge.i to i64
  %32 = getelementptr inbounds nuw double, ptr %1, i64 %31
  %33 = load double, ptr %32, align 8
  %34 = fsub double %33, %2
  %35 = fsub double %30, %34
  %36 = fdiv double %30, %35
  %37 = sext i32 %0 to i64
  %38 = getelementptr inbounds [4 x [2 x double]], ptr @_ZN15MarchingSquares10vertexListE, i64 0, i64 %37
  %39 = getelementptr inbounds nuw i8, ptr %38, i64 8
  store double %36, ptr %39, align 8
  store double %.020, ptr %38, align 16
  br label %40

40:                                               ; preds = %26, %12, %_ZN6Square11EdgeCornersEiRiS0_.exit
  ret void
}